target datalayout = "e-m:e-p270:32:32-p271:32:32-p272:64:64-i64:64-i128:128-f80:128-n8:16:32:64-S128"
target triple = "x86_64-pc-linux-gnu"

%struct._ts = type { ptr, ptr, ptr, i64, %struct.anon.5, i32, i32, i32, i32, i32, i32, i32, i32, ptr, ptr, ptr, ptr, ptr, ptr, ptr, ptr, i32, ptr, i64, i64, ptr, i64, i32, ptr, ptr, ptr, i64, i64, ptr, ptr, ptr, %struct._err_stackitem, ptr, i64, ptr, ptr }
%struct.anon.5 = type { i32 }
%struct._err_stackitem = type { ptr, ptr }

@_Py_tss_tstate = external thread_local global ptr, align 8

; Function Attrs: inlinehint nounwind uwtable
define internal ptr @_PyThreadState_GET() #3 {
  %1 = call align 8 ptr @llvm.threadlocal.address.p0(ptr align 8 @_Py_tss_tstate)
  %2 = load ptr, ptr %1, align 8, !tbaa !23
  ret ptr %2
}

; Function Attrs: inlinehint nounwind uwtable
define internal ptr @_PyInterpreterState_GET() #3 {
  %1 = alloca ptr, align 8
  call void @llvm.lifetime.start.p0(i64 8, ptr %1) #7
  %2 = call ptr @_PyThreadState_GET()
  store ptr %2, ptr %1, align 8, !tbaa !23
  %3 = load ptr, ptr %1, align 8, !tbaa !23
  %4 = getelementptr inbounds nuw %struct._ts, ptr %3, i32 0, i32 2
  %5 = load ptr, ptr %4, align 8, !tbaa !25
  call void @llvm.lifetime.end.p0(i64 8, ptr %1) #7
  ret ptr %5
}

; Function Attrs: nounwind uwtable
define internal i64 @gc_get_freeze_count_impl(ptr noundef %0) #0 {
  %2 = alloca ptr, align 8
  %3 = alloca ptr, align 8
  store ptr %0, ptr %2, align 8, !tbaa !4
  call void @llvm.lifetime.start.p0(i64 8, ptr %3) #7
  %4 = call ptr @_PyInterpreterState_GET()
  store ptr %4, ptr %3, align 8, !tbaa !21
  %5 = load ptr, ptr %3, align 8, !tbaa !21
  %6 = call i64 @_PyGC_GetFreezeCount(ptr noundef %5)
  call void @llvm.lifetime.end.p0(i64 8, ptr %3) #7
  ret i64 %6
}

; Function Attrs: nounwind uwtable
define internal ptr @gc_get_freeze_count(ptr noundef %0, ptr noundef %1) #0 {
  %3 = alloca ptr, align 8
  %4 = alloca ptr, align 8
  %5 = alloca ptr, align 8
  %6 = alloca i64, align 8
  store ptr %0, ptr %3, align 8, !tbaa !4
  store ptr %1, ptr %4, align 8, !tbaa !4
  call void @llvm.lifetime.start.p0(i64 8, ptr %5) #7
  store ptr null, ptr %5, align 8, !tbaa !4
  call void @llvm.lifetime.start.p0(i64 8, ptr %6) #7
  %7 = load ptr, ptr %3, align 8, !tbaa !4
  %8 = call i64 @gc_get_freeze_count_impl(ptr noundef %7)
  store i64 %8, ptr %6, align 8, !tbaa !13
  %9 = load i64, ptr %6, align 8, !tbaa !13
  %10 = icmp eq i64 %9, -1
  br i1 %10, label %11, label %15

11:                                               ; preds = %2
  %12 = call ptr @PyErr_Occurred()
  %13 = icmp ne ptr %12, null
  br i1 %13, label %14, label %15

14:                                               ; preds = %11
  br label %18

15:                                               ; preds = %11, %2
  %16 = load i64, ptr %6, align 8, !tbaa !13
  %17 = call ptr @PyLong_FromSsize_t(i64 noundef %16)
  store ptr %17, ptr %5, align 8, !tbaa !4
  br label %18

18:                                               ; preds = %15, %14
  %19 = load ptr, ptr %5, align 8, !tbaa !4
  call void @llvm.lifetime.end.p0(i64 8, ptr %6) #7
  call void @llvm.lifetime.end.p0(i64 8, ptr %5) #7
  ret ptr %19
}