; Function Attrs: nounwind uwtable
define internal ptr @gc_get_freeze_count(ptr readnone captures(none) %0, ptr readnone captures(none) %1) #0 {
  %3 = tail call align 8 ptr @llvm.threadlocal.address.p0(ptr align 8 @_Py_tss_tstate)
  %4 = load ptr, ptr %3, align 8, !tbaa !4
  %5 = getelementptr inbounds nuw i8, ptr %4, i64 16
  %6 = load ptr, ptr %5, align 8, !tbaa !9
  %7 = tail call i64 @_PyGC_GetFreezeCount(ptr noundef %6) #5
  %8 = icmp eq i64 %7, -1
  br i1 %8, label %9, label %11

9:                                                ; preds = %2
  %10 = tail call ptr @PyErr_Occurred() #5
  %.not = icmp eq ptr %10, null
  br i1 %.not, label %11, label %13

11:                                               ; preds = %9, %2
  %12 = tail call ptr @PyLong_FromSsize_t(i64 noundef %7) #5
  br label %13

13:                                               ; preds = %9, %11
  %.0 = phi ptr [ null, %9 ], [ %12, %11 ]
  ret ptr %.0
}